target datalayout = "e-m:e-p270:32:32-p271:32:32-p272:64:64-i64:64-i128:128-f80:128-n8:16:32:64-S128"
target triple = "x86_64-pc-linux-gnu"

%struct.MatroskaMuxContext = type { ptr, ptr, i32, %struct.ebml_stored_master, %struct.ebml_stored_master, %struct.ebml_stored_master, i64, ptr, i64, i64, i64, i64, ptr, %struct.mkv_seekhead, %struct.mkv_cues, i64, %struct.BlockContext, ptr, ptr, i32, i32, i32, i32, i32, i32, i64, i32, i32, i32, i32, i32, i32, i32, i32, [4 x i32] }
%struct.ebml_stored_master = type { ptr, i64 }
%struct.mkv_seekhead = type { i64, [7 x %struct.mkv_seekhead_entry], i32, i32 }
%struct.mkv_seekhead_entry = type { i32, i64 }
%struct.mkv_cues = type { ptr, i32 }
%struct.BlockContext = type { ptr, ptr, i16, i8, %struct.NALUList }
%struct.NALUList = type { ptr, i32, i32 }
%struct.mkv_cuepoint = type { i64, i32, i64, i64, i64 }

; Function Attrs: nounwind uwtable
define internal i32 @mkv_add_cuepoint(ptr noundef %0, i32 noundef %1, i64 noundef %2, i64 noundef %3, i64 noundef %4, i64 noundef %5) #0 {
  %7 = alloca i32, align 4
  %8 = alloca ptr, align 8
  %9 = alloca i32, align 4
  %10 = alloca i64, align 8
  %11 = alloca i64, align 8
  %12 = alloca i64, align 8
  %13 = alloca i64, align 8
  %14 = alloca ptr, align 8
  %15 = alloca ptr, align 8
  %16 = alloca i32, align 4
  %17 = alloca i32, align 4
  store ptr %0, ptr %8, align 8, !tbaa !26
  store i32 %1, ptr %9, align 4, !tbaa !30
  store i64 %2, ptr %10, align 8, !tbaa !79
  store i64 %3, ptr %11, align 8, !tbaa !79
  store i64 %4, ptr %12, align 8, !tbaa !79
  store i64 %5, ptr %13, align 8, !tbaa !79
  call void @llvm.lifetime.start.p0(i64 8, ptr %14) #16
  %18 = load ptr, ptr %8, align 8, !tbaa !26
  %19 = getelementptr inbounds nuw %struct.MatroskaMuxContext, ptr %18, i32 0, i32 14
  store ptr %19, ptr %14, align 8, !tbaa !341
  call void @llvm.lifetime.start.p0(i64 8, ptr %15) #16
  %20 = load ptr, ptr %14, align 8, !tbaa !341
  %21 = getelementptr inbounds nuw %struct.mkv_cues, ptr %20, i32 0, i32 0
  %22 = load ptr, ptr %21, align 8, !tbaa !343
  store ptr %22, ptr %15, align 8, !tbaa !344
  call void @llvm.lifetime.start.p0(i64 4, ptr %16) #16
  %23 = load ptr, ptr %14, align 8, !tbaa !341
  %24 = getelementptr inbounds nuw %struct.mkv_cues, ptr %23, i32 0, i32 1
  %25 = load i32, ptr %24, align 8, !tbaa !345
  store i32 %25, ptr %16, align 4, !tbaa !30
  %26 = load i64, ptr %10, align 8, !tbaa !79
  %27 = icmp slt i64 %26, 0
  br i1 %27, label %28, label %29

28:                                               ; preds = %6
  store i32 0, ptr %7, align 4
  store i32 1, ptr %17, align 4
  br label %117

29:                                               ; preds = %6
  %30 = load ptr, ptr %15, align 8, !tbaa !344
  %31 = load ptr, ptr %14, align 8, !tbaa !341
  %32 = getelementptr inbounds nuw %struct.mkv_cues, ptr %31, i32 0, i32 1
  %33 = load i32, ptr %32, align 8, !tbaa !345
  %34 = add nsw i32 %33, 1
  %35 = sext i32 %34 to i64
  %36 = call ptr @av_realloc_array(ptr noundef %30, i64 noundef %35, i64 noundef 40)
  store ptr %36, ptr %15, align 8, !tbaa !344
  %37 = load ptr, ptr %15, align 8, !tbaa !344
  %38 = icmp ne ptr %37, null
  br i1 %38, label %40, label %39

39:                                               ; preds = %29
  store i32 -12, ptr %7, align 4
  store i32 1, ptr %17, align 4
  br label %117

40:                                               ; preds = %29
  %41 = load ptr, ptr %15, align 8, !tbaa !344
  %42 = load ptr, ptr %14, align 8, !tbaa !341
  %43 = getelementptr inbounds nuw %struct.mkv_cues, ptr %42, i32 0, i32 0
  store ptr %41, ptr %43, align 8, !tbaa !343
  br label %44

44:                                               ; preds = %59, %40
  %45 = load i32, ptr %16, align 4, !tbaa !30
  %46 = icmp ugt i32 %45, 0
  br i1 %46, label %47, label %57

47:                                               ; preds = %44
  %48 = load ptr, ptr %15, align 8, !tbaa !344
  %49 = load i32, ptr %16, align 4, !tbaa !30
  %50 = sub i32 %49, 1
  %51 = zext i32 %50 to i64
  %52 = getelementptr inbounds nuw %struct.mkv_cuepoint, ptr %48, i64 %51
  %53 = getelementptr inbounds nuw %struct.mkv_cuepoint, ptr %52, i32 0, i32 0
  %54 = load i64, ptr %53, align 8, !tbaa !346
  %55 = load i64, ptr %10, align 8, !tbaa !79
  %56 = icmp ugt i64 %54, %55
  br label %57

57:                                               ; preds = %47, %44
  %58 = phi i1 [ false, %44 ], [ %56, %47 ]
  br i1 %58, label %59, label %62

59:                                               ; preds = %57
  %60 = load i32, ptr %16, align 4, !tbaa !30
  %61 = add i32 %60, -1
  store i32 %61, ptr %16, align 4, !tbaa !30
  br label %44, !llvm.loop !348

62:                                               ; preds = %57
  %63 = load ptr, ptr %15, align 8, !tbaa !344
  %64 = load i32, ptr %16, align 4, !tbaa !30
  %65 = add i32 %64, 1
  %66 = zext i32 %65 to i64
  %67 = getelementptr inbounds nuw %struct.mkv_cuepoint, ptr %63, i64 %66
  %68 = load ptr, ptr %15, align 8, !tbaa !344
  %69 = load i32, ptr %16, align 4, !tbaa !30
  %70 = zext i32 %69 to i64
  %71 = getelementptr inbounds nuw %struct.mkv_cuepoint, ptr %68, i64 %70
  %72 = load ptr, ptr %14, align 8, !tbaa !341
  %73 = getelementptr inbounds nuw %struct.mkv_cues, ptr %72, i32 0, i32 1
  %74 = load i32, ptr %73, align 8, !tbaa !345
  %75 = load i32, ptr %16, align 4, !tbaa !30
  %76 = sub i32 %74, %75
  %77 = zext i32 %76 to i64
  %78 = mul i64 %77, 40
  call void @llvm.memmove.p0.p0.i64(ptr align 8 %67, ptr align 8 %71, i64 %78, i1 false)
  %79 = load i64, ptr %10, align 8, !tbaa !79
  %80 = load ptr, ptr %15, align 8, !tbaa !344
  %81 = load i32, ptr %16, align 4, !tbaa !30
  %82 = zext i32 %81 to i64
  %83 = getelementptr inbounds nuw %struct.mkv_cuepoint, ptr %80, i64 %82
  %84 = getelementptr inbounds nuw %struct.mkv_cuepoint, ptr %83, i32 0, i32 0
  store i64 %79, ptr %84, align 8, !tbaa !346
  %85 = load i32, ptr %9, align 4, !tbaa !30
  %86 = load ptr, ptr %15, align 8, !tbaa !344
  %87 = load i32, ptr %16, align 4, !tbaa !30
  %88 = zext i32 %87 to i64
  %89 = getelementptr inbounds nuw %struct.mkv_cuepoint, ptr %86, i64 %88
  %90 = getelementptr inbounds nuw %struct.mkv_cuepoint, ptr %89, i32 0, i32 1
  store i32 %85, ptr %90, align 8, !tbaa !349
  %91 = load i64, ptr %11, align 8, !tbaa !79
  %92 = load ptr, ptr %8, align 8, !tbaa !26
  %93 = getelementptr inbounds nuw %struct.MatroskaMuxContext, ptr %92, i32 0, i32 6
  %94 = load i64, ptr %93, align 8, !tbaa !65
  %95 = sub nsw i64 %91, %94
  %96 = load ptr, ptr %15, align 8, !tbaa !344
  %97 = load i32, ptr %16, align 4, !tbaa !30
  %98 = zext i32 %97 to i64
  %99 = getelementptr inbounds nuw %struct.mkv_cuepoint, ptr %96, i64 %98
  %100 = getelementptr inbounds nuw %struct.mkv_cuepoint, ptr %99, i32 0, i32 2
  store i64 %95, ptr %100, align 8, !tbaa !350
  %101 = load i64, ptr %12, align 8, !tbaa !79
  %102 = load ptr, ptr %15, align 8, !tbaa !344
  %103 = load i32, ptr %16, align 4, !tbaa !30
  %104 = zext i32 %103 to i64
  %105 = getelementptr inbounds nuw %struct.mkv_cuepoint, ptr %102, i64 %104
  %106 = getelementptr inbounds nuw %struct.mkv_cuepoint, ptr %105, i32 0, i32 3
  store i64 %101, ptr %106, align 8, !tbaa !351
  %107 = load i64, ptr %13, align 8, !tbaa !79
  %108 = load ptr, ptr %15, align 8, !tbaa !344
  %109 = load i32, ptr %16, align 4, !tbaa !30
  %110 = zext i32 %109 to i64
  %111 = getelementptr inbounds nuw %struct.mkv_cuepoint, ptr %108, i64 %110
  %112 = getelementptr inbounds nuw %struct.mkv_cuepoint, ptr %111, i32 0, i32 4
  store i64 %107, ptr %112, align 8, !tbaa !352
  %113 = load ptr, ptr %14, align 8, !tbaa !341
  %114 = getelementptr inbounds nuw %struct.mkv_cues, ptr %113, i32 0, i32 1
  %115 = load i32, ptr %114, align 8, !tbaa !345
  %116 = add nsw i32 %115, 1
  store i32 %116, ptr %114, align 8, !tbaa !345
  store i32 0, ptr %7, align 4
  store i32 1, ptr %17, align 4
  br label %117

117:                                              ; preds = %62, %39, %28
  call void @llvm.lifetime.end.p0(i64 4, ptr %16) #16
  call void @llvm.lifetime.end.p0(i64 8, ptr %15) #16
  call void @llvm.lifetime.end.p0(i64 8, ptr %14) #16
  %118 = load i32, ptr %7, align 4
  ret i32 %118
}