; Function Attrs: nounwind uwtable
define internal fastcc range(i32 -12, 1) i32 @mkv_add_cuepoint(ptr noundef captures(none) %0, i32 noundef %1, i64 noundef %2, i64 noundef %3, i64 noundef %4, i64 noundef range(i64 0, -9223372036854775808) %5) unnamed_addr #0 {
  %7 = getelementptr inbounds nuw i8, ptr %0, i64 256
  %8 = getelementptr inbounds nuw i8, ptr %0, i64 264
  %9 = load i32, ptr %8, align 8, !tbaa !215
  %10 = icmp slt i64 %2, 0
  br i1 %10, label %43, label %11

11:                                               ; preds = %6
  %12 = load ptr, ptr %7, align 8, !tbaa !214
  %13 = add nsw i32 %9, 1
  %14 = sext i32 %13 to i64
  %15 = tail call ptr @av_realloc_array(ptr noundef %12, i64 noundef %14, i64 noundef 40) #14
  %.not = icmp eq ptr %15, null
  br i1 %.not, label %43, label %16

16:                                               ; preds = %11
  store ptr %15, ptr %7, align 8, !tbaa !214
  %17 = zext i32 %9 to i64
  br label %18

18:                                               ; preds = %19, %16
  %indvars.iv = phi i64 [ %20, %19 ], [ %17, %16 ]
  %.not40 = icmp eq i64 %indvars.iv, 0
  br i1 %.not40, label %.critedge, label %19

19:                                               ; preds = %18
  %20 = add nsw i64 %indvars.iv, -1
  %21 = getelementptr inbounds nuw %struct.mkv_cuepoint, ptr %15, i64 %20
  %22 = load i64, ptr %21, align 8, !tbaa !216
  %23 = icmp ugt i64 %22, %2
  br i1 %23, label %18, label %.critedge.split.loop.exit42, !llvm.loop !299

.critedge.split.loop.exit42:                      ; preds = %19
  %24 = trunc nuw i64 %indvars.iv to i32
  br label %.critedge

.critedge:                                        ; preds = %18, %.critedge.split.loop.exit42
  %.0.lcssa = phi i32 [ %24, %.critedge.split.loop.exit42 ], [ 0, %18 ]
  %25 = add i32 %.0.lcssa, 1
  %26 = zext i32 %25 to i64
  %27 = getelementptr inbounds nuw %struct.mkv_cuepoint, ptr %15, i64 %26
  %28 = zext i32 %.0.lcssa to i64
  %29 = getelementptr inbounds nuw %struct.mkv_cuepoint, ptr %15, i64 %28
  %30 = load i32, ptr %8, align 8, !tbaa !215
  %31 = sub i32 %30, %.0.lcssa
  %32 = zext i32 %31 to i64
  %33 = mul nuw nsw i64 %32, 40
  tail call void @llvm.memmove.p0.p0.i64(ptr nonnull align 8 %27, ptr nonnull align 8 %29, i64 %33, i1 false)
  store i64 %2, ptr %29, align 8, !tbaa !216
  %34 = getelementptr inbounds nuw i8, ptr %29, i64 8
  store i32 %1, ptr %34, align 8, !tbaa !219
  %35 = getelementptr inbounds nuw i8, ptr %0, i64 72
  %36 = load i64, ptr %35, align 8, !tbaa !53
  %37 = sub nsw i64 %3, %36
  %38 = getelementptr inbounds nuw i8, ptr %29, i64 16
  store i64 %37, ptr %38, align 8, !tbaa !221
  %39 = getelementptr inbounds nuw i8, ptr %29, i64 24
  store i64 %4, ptr %39, align 8, !tbaa !222
  %40 = getelementptr inbounds nuw i8, ptr %29, i64 32
  store i64 %5, ptr %40, align 8, !tbaa !223
  %41 = load i32, ptr %8, align 8, !tbaa !215
  %42 = add nsw i32 %41, 1
  store i32 %42, ptr %8, align 8, !tbaa !215
  br label %43

43:                                               ; preds = %11, %6, %.critedge
  %.037 = phi i32 [ 0, %.critedge ], [ 0, %6 ], [ -12, %11 ]
  ret i32 %.037
}